; ModuleID = '40/119.c'
source_filename = "40/119.c"
target datalayout = "e-m:e-p270:32:32-p271:32:32-p272:64:64-i64:64-f80:128-n8:16:32:64-S128"
target triple = "x86_64-pc-linux-gnu"

@.str = private unnamed_addr constant [16 x i8] c"%lf%lf%lf%lf%lf\00", align 1
@.str.1 = private unnamed_addr constant [7 x i8] c"%.4lf\0A\00", align 1
@.str.2 = private unnamed_addr constant [15 x i8] c"Invalid input\0A\00", align 1

; Function Attrs: noinline nounwind uwtable
define dso_local i32 @main() #0 {
  %1 = alloca i32, align 4
  %2 = alloca double, align 8
  %3 = alloca double, align 8
  %4 = alloca double, align 8
  %5 = alloca double, align 8
  %6 = alloca double, align 8
  %7 = alloca double, align 8
  %8 = alloca double, align 8
  store i32 0, i32* %1, align 4
  %9 = call i32 (i8*, ...) @__isoc99_scanf(i8* getelementptr inbounds ([16 x i8], [16 x i8]* @.str, i64 0, i64 0), double* %2, double* %3, double* %4, double* %5, double* %6)
  %10 = load double, double* %6, align 8
  %11 = fdiv double %10, 3.600000e+02
  %12 = fmul double %11, 0x400921FB4D12D84A
  store double %12, double* %6, align 8
  %13 = load double, double* %6, align 8
  %14 = call double @cos(double %13) #3
  store double %14, double* %6, align 8
  %15 = load double, double* %2, align 8
  %16 = load double, double* %3, align 8
  %17 = fadd double %15, %16
  %18 = load double, double* %4, align 8
  %19 = fadd double %17, %18
  %20 = load double, double* %5, align 8
  %21 = fadd double %19, %20
  %22 = fmul double 5.000000e-01, %21
  store double %22, double* %8, align 8
  %23 = load double, double* %8, align 8
  %24 = load double, double* %2, align 8
  %25 = fsub double %23, %24
  %26 = load double, double* %8, align 8
  %27 = load double, double* %3, align 8
  %28 = fsub double %26, %27
  %29 = fmul double %25, %28
  %30 = load double, double* %8, align 8
  %31 = load double, double* %4, align 8
  %32 = fsub double %30, %31
  %33 = fmul double %29, %32
  %34 = load double, double* %8, align 8
  %35 = load double, double* %5, align 8
  %36 = fsub double %34, %35
  %37 = fmul double %33, %36
  %38 = load double, double* %2, align 8
  %39 = load double, double* %3, align 8
  %40 = fmul double %38, %39
  %41 = load double, double* %4, align 8
  %42 = fmul double %40, %41
  %43 = load double, double* %5, align 8
  %44 = fmul double %42, %43
  %45 = load double, double* %6, align 8
  %46 = fmul double %44, %45
  %47 = load double, double* %6, align 8
  %48 = fmul double %46, %47
  %49 = fsub double %37, %48
  %50 = call double @sqrt(double %49) #3
  store double %50, double* %7, align 8
  %51 = load double, double* %8, align 8
  %52 = load double, double* %2, align 8
  %53 = fsub double %51, %52
  %54 = load double, double* %8, align 8
  %55 = load double, double* %3, align 8
  %56 = fsub double %54, %55
  %57 = fmul double %53, %56
  %58 = load double, double* %8, align 8
  %59 = load double, double* %4, align 8
  %60 = fsub double %58, %59
  %61 = fmul double %57, %60
  %62 = load double, double* %8, align 8
  %63 = load double, double* %5, align 8
  %64 = fsub double %62, %63
  %65 = fmul double %61, %64
  %66 = load double, double* %2, align 8
  %67 = load double, double* %3, align 8
  %68 = fmul double %66, %67
  %69 = load double, double* %4, align 8
  %70 = fmul double %68, %69
  %71 = load double, double* %5, align 8
  %72 = fmul double %70, %71
  %73 = load double, double* %6, align 8
  %74 = fmul double %72, %73
  %75 = load double, double* %6, align 8
  %76 = fmul double %74, %75
  %77 = fsub double %65, %76
  %78 = fcmp ogt double %77, 0.000000e+00
  br i1 %78, label %79, label %82

79:                                               ; preds = %0
  %80 = load double, double* %7, align 8
  %81 = call i32 (i8*, ...) @printf(i8* getelementptr inbounds ([7 x i8], [7 x i8]* @.str.1, i64 0, i64 0), double %80)
  br label %114

82:                                               ; preds = %0
  %83 = load double, double* %8, align 8
  %84 = load double, double* %2, align 8
  %85 = fsub double %83, %84
  %86 = load double, double* %8, align 8
  %87 = load double, double* %3, align 8
  %88 = fsub double %86, %87
  %89 = fmul double %85, %88
  %90 = load double, double* %8, align 8
  %91 = load double, double* %4, align 8
  %92 = fsub double %90, %91
  %93 = fmul double %89, %92
  %94 = load double, double* %8, align 8
  %95 = load double, double* %5, align 8
  %96 = fsub double %94, %95
  %97 = fmul double %93, %96
  %98 = load double, double* %2, align 8
  %99 = load double, double* %3, align 8
  %100 = fmul double %98, %99
  %101 = load double, double* %4, align 8
  %102 = fmul double %100, %101
  %103 = load double, double* %5, align 8
  %104 = fmul double %102, %103
  %105 = load double, double* %6, align 8
  %106 = fmul double %104, %105
  %107 = load double, double* %6, align 8
  %108 = fmul double %106, %107
  %109 = fsub double %97, %108
  %110 = fcmp olt double %109, 0.000000e+00
  br i1 %110, label %111, label %113

111:                                              ; preds = %82
  %112 = call i32 (i8*, ...) @printf(i8* getelementptr inbounds ([15 x i8], [15 x i8]* @.str.2, i64 0, i64 0))
  br label %113

113:                                              ; preds = %111, %82
  br label %114

114:                                              ; preds = %113, %79
  ret i32 0
}

declare dso_local i32 @__isoc99_scanf(i8*, ...) #1

; Function Attrs: nounwind
declare dso_local double @cos(double) #2

; Function Attrs: nounwind
declare dso_local double @sqrt(double) #2

declare dso_local i32 @printf(i8*, ...) #1


!llvm.module.flags = !{!0}
!llvm.ident = !{!1}

!0 = !{i32 1, !"wchar_size", i32 4}
!1 = !{!"clang version 10.0.0-4ubuntu1 "}
